; Function Attrs: nounwind uwtable
define ptr @SSL_get1_session(ptr noundef %0) local_unnamed_addr #3 {
  %2 = getelementptr inbounds nuw i8, ptr %0, i64 40
  %3 = load ptr, ptr %2, align 8, !tbaa !71
  %4 = tail call i32 @CRYPTO_THREAD_read_lock(ptr noundef %3) #11
  %.not = icmp eq i32 %4, 0
  br i1 %.not, label %21, label %5

5:                                                ; preds = %1
  %6 = load i32, ptr %0, align 8, !tbaa !7
  %7 = icmp eq i32 %6, 0
  br i1 %7, label %SSL_get_session.exit, label %8

8:                                                ; preds = %5
  %9 = and i32 %6, 128
  %.not.i = icmp eq i32 %9, 0
  br i1 %.not.i, label %SSL_get_session.exit.thread, label %10

10:                                               ; preds = %8
  %11 = tail call ptr @ossl_quic_obj_get0_handshake_layer(ptr noundef nonnull %0) #11
  %12 = icmp eq ptr %11, null
  br i1 %12, label %SSL_get_session.exit.thread, label %SSL_get_session.exit

SSL_get_session.exit:                             ; preds = %5, %10
  %13 = phi ptr [ %11, %10 ], [ %0, %5 ]
  %14 = getelementptr inbounds nuw i8, ptr %13, i64 2304
  %15 = load ptr, ptr %14, align 8, !tbaa !17
  %.not8 = icmp eq ptr %15, null
  br i1 %.not8, label %SSL_get_session.exit.thread, label %16

16:                                               ; preds = %SSL_get_session.exit
  %17 = getelementptr inbounds nuw i8, ptr %15, i64 920
  %18 = atomicrmw add ptr %17, i32 1 monotonic, align 4
  br label %SSL_get_session.exit.thread

SSL_get_session.exit.thread:                      ; preds = %8, %10, %16, %SSL_get_session.exit
  %.0.i11 = phi ptr [ %15, %16 ], [ null, %SSL_get_session.exit ], [ null, %10 ], [ null, %8 ]
  %19 = load ptr, ptr %2, align 8, !tbaa !71
  %20 = tail call i32 @CRYPTO_THREAD_unlock(ptr noundef %19) #11
  br label %21

21:                                               ; preds = %1, %SSL_get_session.exit.thread
  %.0 = phi ptr [ %.0.i11, %SSL_get_session.exit.thread ], [ null, %1 ]
  ret ptr %.0
}